; Function Attrs: mustprogress uwtable
define void @_ZN6google7logging8internal22MakeCheckOpValueStringIaEEvPSoRKT_(ptr noundef %0, ptr noundef nonnull readonly align 1 captures(none) dereferenceable(1) %1) local_unnamed_addr #0 {
  %3 = alloca i8, align 1
  %4 = load i8, ptr %1, align 1, !tbaa !51
  %5 = add i8 %4, -127
  %or.cond = icmp ult i8 %5, -95
  br i1 %or.cond, label %20, label %6

6:                                                ; preds = %2
  %7 = tail call noundef nonnull align 8 dereferenceable(8) ptr @_ZSt16__ostream_insertIcSt11char_traitsIcEERSt13basic_ostreamIT_T0_ES6_PKS3_l(ptr noundef nonnull align 8 dereferenceable(8) %0, ptr noundef nonnull @.str.55, i64 noundef 1)
  %8 = load i8, ptr %1, align 1, !tbaa !51
  call void @llvm.lifetime.start.p0(i64 1, ptr nonnull %3)
  store i8 %8, ptr %3, align 1, !tbaa !51
  %9 = load ptr, ptr %0, align 8, !tbaa !3
  %10 = getelementptr i8, ptr %9, i64 -24
  %11 = load i64, ptr %10, align 8
  %12 = getelementptr inbounds i8, ptr %0, i64 %11
  %13 = getelementptr inbounds nuw i8, ptr %12, i64 16
  %14 = load i64, ptr %13, align 8, !tbaa !113
  %.not.i.i = icmp eq i64 %14, 0
  br i1 %.not.i.i, label %17, label %15

15:                                               ; preds = %6
  %16 = call noundef nonnull align 8 dereferenceable(8) ptr @_ZSt16__ostream_insertIcSt11char_traitsIcEERSt13basic_ostreamIT_T0_ES6_PKS3_l(ptr noundef nonnull align 8 dereferenceable(8) %0, ptr noundef nonnull %3, i64 noundef 1)
  br label %_ZStlsISt11char_traitsIcEERSt13basic_ostreamIcT_ES5_a.exit

17:                                               ; preds = %6
  %18 = tail call noundef nonnull align 8 dereferenceable(8) ptr @_ZNSo3putEc(ptr noundef nonnull align 8 dereferenceable(8) %0, i8 noundef signext %8)
  br label %_ZStlsISt11char_traitsIcEERSt13basic_ostreamIcT_ES5_a.exit

_ZStlsISt11char_traitsIcEERSt13basic_ostreamIcT_ES5_a.exit: ; preds = %15, %17
  %.0.i.i = phi ptr [ %16, %15 ], [ %0, %17 ]
  call void @llvm.lifetime.end.p0(i64 1, ptr nonnull %3)
  %19 = call noundef nonnull align 8 dereferenceable(8) ptr @_ZSt16__ostream_insertIcSt11char_traitsIcEERSt13basic_ostreamIT_T0_ES6_PKS3_l(ptr noundef nonnull align 8 dereferenceable(8) %.0.i.i, ptr noundef nonnull @.str.55, i64 noundef 1)
  br label %25

20:                                               ; preds = %2
  %21 = tail call noundef nonnull align 8 dereferenceable(8) ptr @_ZSt16__ostream_insertIcSt11char_traitsIcEERSt13basic_ostreamIT_T0_ES6_PKS3_l(ptr noundef nonnull align 8 dereferenceable(8) %0, ptr noundef nonnull @.str.57, i64 noundef 18)
  %22 = load i8, ptr %1, align 1, !tbaa !51
  %23 = sext i8 %22 to i16
  %24 = tail call noundef nonnull align 8 dereferenceable(8) ptr @_ZNSolsEs(ptr noundef nonnull align 8 dereferenceable(8) %0, i16 noundef signext %23)
  br label %25

25:                                               ; preds = %20, %_ZStlsISt11char_traitsIcEERSt13basic_ostreamIcT_ES5_a.exit
  ret void
}